Certificate:
    Data:
        Version: 3 (0x2)
        Serial Number: 105 (0x69)
        Signature Algorithm: sha1WithRSAEncryption
        Issuer: C=IT, O=IGI, CN=Test CA
        Validity
            Not Before: Nov  5 16:03:30 2014 GMT
            Not After : Nov  2 16:03:30 2024 GMT
        Subject: C=IT, O=IGI, CN=myproxy-server
        Subject Public Key Info:
            Public Key Algorithm: rsaEncryption
            RSA Public Key: (2048 bit)
                Modulus (2048 bit):
                    00:bf:c2:88:98:52:0c:d5:ab:a9:47:5d:d1:a7:19:
                    71:ed:57:41:94:84:81:ac:91:16:86:e3:dc:6f:54:
                    36:02:3b:fc:0b:1b:a1:26:c4:e4:0a:fe:62:80:f5:
                    b4:3a:fa:be:1e:6b:52:76:2b:5e:97:d0:c4:76:43:
                    3f:15:b1:47:f1:7b:80:52:1d:11:a5:96:c7:67:cc:
                    7f:b7:bf:af:6f:d3:eb:e7:66:66:b2:da:19:6b:53:
                    ef:d1:22:f8:df:f3:6b:6f:8d:77:09:16:77:8a:49:
                    3f:ab:7e:5f:a1:b2:a7:9f:4b:35:8f:94:16:ff:f3:
                    b2:0b:b1:7c:4b:90:51:d5:33:2a:2c:d5:42:94:a8:
                    64:80:76:36:41:53:65:f3:2a:01:09:d0:eb:b8:96:
                    2f:da:c6:22:02:81:a4:5c:33:fc:67:d7:6a:6f:ce:
                    28:14:22:55:8a:53:e2:10:36:05:e4:1c:0b:19:a0:
                    9a:7c:cf:63:38:94:ea:99:06:60:14:bf:5b:94:c4:
                    2d:de:d6:7b:24:6d:da:4a:11:64:10:25:c5:d6:00:
                    31:66:96:b9:52:f8:74:20:38:12:04:34:9f:81:75:
                    75:18:b1:a6:24:18:a9:ed:db:e8:54:0d:d1:56:ab:
                    b8:41:8a:58:74:4e:4d:0c:d5:0c:9f:d4:9d:7d:26:
                    3c:e7
                Exponent: 65537 (0x10001)
        X509v3 extensions:
            X509v3 Basic Constraints: critical
                CA:FALSE
            X509v3 Subject Key Identifier: 
                BF:89:4C:E8:18:0A:F0:F5:F1:00:55:53:13:65:B0:C6:2E:AD:AC:F3
            X509v3 Key Usage: critical
                Digital Signature, Non Repudiation, Key Encipherment
            X509v3 Extended Key Usage: 
                TLS Web Server Authentication, TLS Web Client Authentication, Microsoft Server Gated Crypto, Netscape Server Gated Crypto, E-mail Protection
            X509v3 Authority Key Identifier: 
                keyid:91:77:36:7B:2E:B4:69:F3:27:EA:B7:F6:08:8B:4A:23:A2:11:49:C6

            X509v3 Subject Alternative Name: 
                DNS:myproxy-server
    Signature Algorithm: sha1WithRSAEncryption
        47:e0:26:27:50:ba:ff:a0:f0:b6:17:d3:a9:a8:11:46:e0:19:
        e6:fd:fd:0e:e0:03:5d:70:54:31:d3:6c:c4:61:36:d7:c4:5f:
        56:59:0b:19:f0:86:0b:7e:96:bf:da:cd:82:b4:4f:75:73:86:
        b4:da:d6:cd:54:ff:3f:0c:f1:71:ae:a8:f1:ec:5a:e5:cf:b7:
        5d:16:5b:44:bd:5e:e5:d6:fb:dc:23:90:81:79:1b:ef:f9:cd:
        d2:b5:02:0f:01:8f:60:63:fb:0c:e0:78:75:ab:b4:e4:df:4b:
        b3:e5:37:d2:d6:85:81:fd:54:14:61:1c:de:d6:d5:9c:f3:82:
        d8:30:8f:16:a2:38:d0:1a:4b:51:68:fa:4c:cf:68:64:3d:72:
        37:19:23:63:20:24:f4:2f:20:eb:b8:f5:25:a5:cf:0d:63:30:
        f5:dd:dc:39:64:cd:a2:25:df:aa:55:d5:84:92:aa:de:2d:3c:
        88:42:60:ac:45:f8:29:cb:f7:dc:48:11:67:98:13:79:a1:88:
        2e:03:d4:7f:b4:76:4a:42:8f:4e:d4:ab:13:88:75:e5:b4:9a:
        32:d3:f9:61:e0:f1:17:e1:bf:3f:5d:b8:53:01:99:12:69:fd:
        c2:05:b6:28:64:95:01:f0:ed:2f:58:fb:ee:21:84:ea:90:1b:
        8e:cc:8b:3c
-----BEGIN CERTIFICATE-----
MIIDmTCCAoGgAwIBAgIBaTANBgkqhkiG9w0BAQUFADAtMQswCQYDVQQGEwJJVDEM
MAoGA1UECgwDSUdJMRAwDgYDVQQDDAdUZXN0IENBMB4XDTE0MTEwNTE2MDMzMFoX
DTI0MTEwMjE2MDMzMFowNDELMAkGA1UEBhMCSVQxDDAKBgNVBAoMA0lHSTEXMBUG
A1UEAwwObXlwcm94eS1zZXJ2ZXIwggEiMA0GCSqGSIb3DQEBAQUAA4IBDwAwggEK
AoIBAQC/woiYUgzVq6lHXdGnGXHtV0GUhIGskRaG49xvVDYCO/wLG6EmxOQK/mKA
9bQ6+r4ea1J2K16X0MR2Qz8VsUfxe4BSHRGllsdnzH+3v69v0+vnZmay2hlrU+/R
Ivjf82tvjXcJFneKST+rfl+hsqefSzWPlBb/87ILsXxLkFHVMyos1UKUqGSAdjZB
U2XzKgEJ0Ou4li/axiICgaRcM/xn12pvzigUIlWKU+IQNgXkHAsZoJp8z2M4lOqZ
BmAUv1uUxC3e1nskbdpKEWQQJcXWADFmlrlS+HQgOBIENJ+BdXUYsaYkGKnt2+hU
DdFWq7hBilh0Tk0M1Qyf1J19JjznAgMBAAGjgbwwgbkwDAYDVR0TAQH/BAIwADAd
BgNVHQ4EFgQUv4lM6BgK8PXxAFVTE2Wwxi6trPMwDgYDVR0PAQH/BAQDAgXgMD4G
A1UdJQQ3MDUGCCsGAQUFBwMBBggrBgEFBQcDAgYKKwYBBAGCNwoDAwYJYIZIAYb4
QgQBBggrBgEFBQcDBDAfBgNVHSMEGDAWgBSRdzZ7LrRp8yfqt/YIi0ojohFJxjAZ
BgNVHREEEjAQgg5teXByb3h5LXNlcnZlcjANBgkqhkiG9w0BAQUFAAOCAQEAR+Am
J1C6/6DwthfTqagRRuAZ5v39DuADXXBUMdNsxGE218RfVlkLGfCGC36Wv9rNgrRP
dXOGtNrWzVT/Pwzxca6o8exa5c+3XRZbRL1e5db73COQgXkb7/nN0rUCDwGPYGP7
DOB4dau05N9Ls+U30taFgf1UFGEc3tbVnPOC2DCPFqI40BpLUWj6TM9oZD1yNxkj
YyAk9C8g67j1JaXPDWMw9d3cOWTNoiXfqlXVhJKq3i08iEJgrEX4Kcv33EgRZ5gT
eaGILgPUf7R2SkKPTtSrE4h15bSaMtP5YeDxF+G/P124UwGZEmn9wgW2KGSVAfDt
L1j77iGE6pAbjsyLPA==
-----END CERTIFICATE-----
