Certificate:
    Data:
        Version: 3 (0x2)
        Serial Number: 778 (0x30a)
        Signature Algorithm: sha512WithRSAEncryption
        Issuer: C=IT, O=IGI, CN=Test CA
        Validity
            Not Before: Feb 21 06:14:16 2015 GMT
            Not After : Feb 18 06:14:16 2025 GMT
        Subject: C=IT, O=IGI, CN=dev.local.io
        Subject Public Key Info:
            Public Key Algorithm: rsaEncryption
            RSA Public Key: (2048 bit)
                Modulus (2048 bit):
                    00:c7:6c:74:5d:dd:c9:57:ff:38:da:da:b9:50:59:
                    ff:3d:41:7e:4f:3d:69:e1:27:29:ce:72:cb:a5:81:
                    a3:4b:de:37:59:a8:f1:b3:32:a6:94:f9:97:b9:69:
                    05:45:50:d2:48:db:2f:0f:1c:f7:1d:0c:1f:42:db:
                    d6:e8:39:5c:eb:ec:a8:87:b9:d6:81:d0:f6:e9:fa:
                    23:bb:78:29:e7:05:fb:57:ca:06:79:a0:91:1c:27:
                    03:86:27:cd:a7:92:fb:47:61:45:eb:73:3c:34:3e:
                    f3:ba:7f:18:9e:6f:2a:e2:d0:af:84:45:74:7f:fa:
                    9f:34:90:9f:12:23:68:99:0a:67:57:c3:31:a5:d1:
                    9d:99:d5:c2:f6:42:87:24:6e:27:95:0f:21:e2:07:
                    e2:bd:c8:17:d1:df:c5:38:32:e1:85:72:0d:6a:49:
                    18:b0:f2:3a:68:8a:87:62:b8:fa:86:86:b2:0c:48:
                    bb:9b:54:c9:f3:92:84:97:fa:f1:18:a9:47:f9:54:
                    bf:07:f4:5a:b4:15:17:36:32:10:ac:2e:6a:be:27:
                    4e:52:08:9a:8f:8b:d2:29:fa:3b:5a:db:02:a2:54:
                    6f:a5:ff:f2:b3:65:c3:13:ee:39:76:1a:c8:c2:1f:
                    49:df:0e:39:25:5b:3f:98:bb:05:ea:54:19:76:bb:
                    7d:55
                Exponent: 65537 (0x10001)
        X509v3 extensions:
            X509v3 Basic Constraints: critical
                CA:FALSE
            X509v3 Subject Key Identifier: 
                A5:78:CE:B3:07:D1:92:F0:5A:F5:1E:CC:F1:0C:95:AF:AE:DA:56:25
            X509v3 Key Usage: critical
                Digital Signature, Non Repudiation, Key Encipherment
            X509v3 Extended Key Usage: 
                TLS Web Server Authentication, TLS Web Client Authentication, Microsoft Server Gated Crypto, Netscape Server Gated Crypto, E-mail Protection
            X509v3 Authority Key Identifier: 
                keyid:91:77:36:7B:2E:B4:69:F3:27:EA:B7:F6:08:8B:4A:23:A2:11:49:C6

            X509v3 Subject Alternative Name: 
                DNS:dev.local.io, DNS:localhost
    Signature Algorithm: sha512WithRSAEncryption
        a3:07:9e:c9:eb:c5:98:d6:f6:2e:d7:d5:e4:db:89:e4:1e:37:
        0c:f9:43:62:bd:8f:d2:95:a1:1b:ba:24:49:ee:85:63:01:cb:
        a3:0a:b2:8f:24:73:f7:72:4d:8c:a1:62:75:6c:e7:59:76:89:
        b2:76:6c:56:ff:50:0d:60:65:8f:6c:17:2c:49:03:62:aa:73:
        17:68:89:d3:1f:6c:58:78:80:8c:5b:66:9a:de:90:8b:3e:74:
        f0:2e:3b:28:fd:fc:d2:f2:62:b6:ec:c6:1d:dc:ee:07:2a:44:
        48:a9:99:1f:85:89:d2:d0:10:fd:89:0f:3a:94:75:2c:76:3b:
        4a:9a:0a:3e:d0:72:0a:ae:3e:7b:ce:63:64:ff:be:ff:16:e4:
        05:0b:1a:4a:65:7e:bb:4d:01:d0:da:2c:aa:ae:09:09:e7:c7:
        e3:62:d3:d5:88:7b:90:a5:15:28:3a:47:c2:1e:ee:65:07:e7:
        5d:1c:f5:50:c3:a6:12:ff:0e:09:9b:ca:78:e5:76:df:ac:93:
        12:01:70:6e:d7:4e:fd:e3:c4:9d:77:95:d6:71:4a:d5:27:2f:
        81:ae:d8:1b:a9:2f:ad:72:d1:52:44:2f:cc:ef:6a:00:65:da:
        00:b0:93:2f:d2:7d:4d:a7:10:15:a9:84:95:2c:86:41:b2:a5:
        f7:d7:77:80
-----BEGIN CERTIFICATE-----
MIIDoTCCAomgAwIBAgICAwowDQYJKoZIhvcNAQENBQAwLTELMAkGA1UEBhMCSVQx
DDAKBgNVBAoMA0lHSTEQMA4GA1UEAwwHVGVzdCBDQTAeFw0xNTAyMjEwNjE0MTZa
Fw0yNTAyMTgwNjE0MTZaMDIxCzAJBgNVBAYTAklUMQwwCgYDVQQKDANJR0kxFTAT
BgNVBAMMDGRldi5sb2NhbC5pbzCCASIwDQYJKoZIhvcNAQEBBQADggEPADCCAQoC
ggEBAMdsdF3dyVf/ONrauVBZ/z1Bfk89aeEnKc5yy6WBo0veN1mo8bMyppT5l7lp
BUVQ0kjbLw8c9x0MH0Lb1ug5XOvsqIe51oHQ9un6I7t4KecF+1fKBnmgkRwnA4Yn
zaeS+0dhRetzPDQ+87p/GJ5vKuLQr4RFdH/6nzSQnxIjaJkKZ1fDMaXRnZnVwvZC
hyRuJ5UPIeIH4r3IF9HfxTgy4YVyDWpJGLDyOmiKh2K4+oaGsgxIu5tUyfOShJf6
8RipR/lUvwf0WrQVFzYyEKwuar4nTlIImo+L0in6O1rbAqJUb6X/8rNlwxPuOXYa
yMIfSd8OOSVbP5i7BepUGXa7fVUCAwEAAaOBxTCBwjAMBgNVHRMBAf8EAjAAMB0G
A1UdDgQWBBSleM6zB9GS8Fr1HszxDJWvrtpWJTAOBgNVHQ8BAf8EBAMCBeAwPgYD
VR0lBDcwNQYIKwYBBQUHAwEGCCsGAQUFBwMCBgorBgEEAYI3CgMDBglghkgBhvhC
BAEGCCsGAQUFBwMEMB8GA1UdIwQYMBaAFJF3NnsutGnzJ+q39giLSiOiEUnGMCIG
A1UdEQQbMBmCDGRldi5sb2NhbC5pb4IJbG9jYWxob3N0MA0GCSqGSIb3DQEBDQUA
A4IBAQCjB57J68WY1vYu19Xk24nkHjcM+UNivY/SlaEbuiRJ7oVjAcujCrKPJHP3
ck2MoWJ1bOdZdomydmxW/1ANYGWPbBcsSQNiqnMXaInTH2xYeICMW2aa3pCLPnTw
Ljso/fzS8mK27MYd3O4HKkRIqZkfhYnS0BD9iQ86lHUsdjtKmgo+0HIKrj57zmNk
/77/FuQFCxpKZX67TQHQ2iyqrgkJ58fjYtPViHuQpRUoOkfCHu5lB+ddHPVQw6YS
/w4Jm8p45XbfrJMSAXBu107948Sdd5XWcUrVJy+BrtgbqS+tctFSRC/M72oAZdoA
sJMv0n1NpxAVqYSVLIZBsqX313eA
-----END CERTIFICATE-----
