Certificate:
    Data:
        Version: 3 (0x2)
        Serial Number: 102 (0x66)
        Signature Algorithm: sha512WithRSAEncryption
        Issuer: C=IT, O=IGI, CN=Test CA
        Validity
            Not Before: Oct  9 14:10:28 2014 GMT
            Not After : Oct  6 14:10:28 2024 GMT
        Subject: C=IT, O=IGI, CN=docker-storm.cnaf.infn.it
        Subject Public Key Info:
            Public Key Algorithm: rsaEncryption
            RSA Public Key: (2048 bit)
                Modulus (2048 bit):
                    00:ce:46:92:22:78:0d:ae:9b:18:53:bd:66:d3:00:
                    1d:71:6d:58:1b:b1:ae:63:32:5e:a7:4a:90:d9:e3:
                    e2:13:60:73:05:eb:3f:20:5f:ce:3c:bb:8d:12:8b:
                    8b:3d:ab:aa:72:28:1f:2e:41:91:51:05:fd:35:0c:
                    b9:23:6f:53:b7:64:22:ec:e7:67:4d:b7:76:70:ce:
                    f6:d6:16:62:5d:cf:17:e6:45:bf:cd:23:cb:dc:bd:
                    fb:31:de:7c:58:a4:49:e1:5b:a1:85:9d:58:52:d5:
                    3f:68:28:21:c5:8c:3b:b4:01:60:3a:37:fd:6d:58:
                    0b:56:0f:0b:f0:82:4a:f1:7c:0c:bb:d3:82:6f:a1:
                    e8:73:a6:d4:49:20:c9:1f:e4:a9:31:c5:ea:b0:64:
                    93:60:7f:6a:4e:98:3f:11:ce:bc:4b:d4:4f:aa:0e:
                    36:db:ee:25:d8:4e:2d:48:c8:35:50:96:c9:60:1d:
                    04:ac:11:6d:c9:30:d2:e1:40:45:95:45:46:d7:14:
                    db:19:04:6f:8a:ba:17:f3:c4:57:4e:d6:12:31:17:
                    ae:9e:b3:2a:95:66:03:f4:23:3c:e3:d2:64:22:ad:
                    a2:db:79:19:79:e9:f8:76:fc:ba:9e:3a:75:f7:cf:
                    27:9d:b3:f4:f6:5b:33:94:0b:3d:00:9f:47:c3:6a:
                    3d:4b
                Exponent: 65537 (0x10001)
        X509v3 extensions:
            X509v3 Basic Constraints: critical
                CA:FALSE
            X509v3 Subject Key Identifier: 
                05:E0:C7:27:1A:D5:F9:92:9B:00:AA:96:B9:31:55:CD:BE:22:0F:D3
            X509v3 Key Usage: critical
                Digital Signature, Non Repudiation, Key Encipherment
            X509v3 Extended Key Usage: 
                TLS Web Server Authentication, TLS Web Client Authentication, Microsoft Server Gated Crypto, Netscape Server Gated Crypto, E-mail Protection
            X509v3 Authority Key Identifier: 
                keyid:91:77:36:7B:2E:B4:69:F3:27:EA:B7:F6:08:8B:4A:23:A2:11:49:C6

            X509v3 Subject Alternative Name: 
                DNS:docker-storm.cnaf.infn.it
    Signature Algorithm: sha512WithRSAEncryption
        79:f6:f0:c9:81:09:0c:5a:1a:b7:75:ca:9c:b6:2d:d3:3b:bc:
        50:6e:72:52:9e:94:48:ac:ff:a4:6e:c3:6c:d3:b8:3c:fd:fe:
        e8:b3:b0:0f:94:61:60:e9:fa:2a:23:ca:94:32:53:06:a0:1a:
        49:1a:13:8c:65:a7:a7:53:28:c3:6f:6f:fb:e8:4f:1b:a2:ea:
        55:2c:9b:ac:36:d2:0f:a3:05:95:fa:fa:a4:4f:aa:f6:4b:b7:
        7f:65:59:05:7c:c0:c5:2c:bf:53:a5:f6:c0:92:d7:ac:da:aa:
        e3:9b:34:55:c2:35:a8:ac:0d:c8:6c:f2:0c:00:cf:59:3d:99:
        8b:a7:20:bc:1d:fb:32:72:e7:55:1e:12:75:e5:4e:56:04:1d:
        96:c5:6a:8a:49:dc:97:b2:13:15:9d:89:66:43:fb:31:7c:33:
        00:80:be:97:0f:78:ca:b9:a6:11:8d:e9:a4:73:64:4c:a9:13:
        0c:ad:bc:1a:78:67:d2:00:2e:ca:8d:90:ea:10:3b:df:b4:9e:
        57:27:77:a6:11:48:20:96:7a:2f:f1:b7:b6:ab:33:c1:13:4d:
        d8:c2:39:3c:78:b9:f4:94:af:50:33:17:ca:83:e9:87:58:dc:
        fc:19:c0:24:d6:88:65:c6:c1:09:5b:52:41:6a:7e:45:60:73:
        9e:ac:3c:13
-----BEGIN CERTIFICATE-----
MIIDrzCCApegAwIBAgIBZjANBgkqhkiG9w0BAQ0FADAtMQswCQYDVQQGEwJJVDEM
MAoGA1UECgwDSUdJMRAwDgYDVQQDDAdUZXN0IENBMB4XDTE0MTAwOTE0MTAyOFoX
DTI0MTAwNjE0MTAyOFowPzELMAkGA1UEBhMCSVQxDDAKBgNVBAoMA0lHSTEiMCAG
A1UEAwwZZG9ja2VyLXN0b3JtLmNuYWYuaW5mbi5pdDCCASIwDQYJKoZIhvcNAQEB
BQADggEPADCCAQoCggEBAM5GkiJ4Da6bGFO9ZtMAHXFtWBuxrmMyXqdKkNnj4hNg
cwXrPyBfzjy7jRKLiz2rqnIoHy5BkVEF/TUMuSNvU7dkIuznZ023dnDO9tYWYl3P
F+ZFv80jy9y9+zHefFikSeFboYWdWFLVP2goIcWMO7QBYDo3/W1YC1YPC/CCSvF8
DLvTgm+h6HOm1EkgyR/kqTHF6rBkk2B/ak6YPxHOvEvUT6oONtvuJdhOLUjINVCW
yWAdBKwRbckw0uFARZVFRtcU2xkEb4q6F/PEV07WEjEXrp6zKpVmA/QjPOPSZCKt
ott5GXnp+Hb8up46dffPJ52z9PZbM5QLPQCfR8NqPUsCAwEAAaOBxzCBxDAMBgNV
HRMBAf8EAjAAMB0GA1UdDgQWBBQF4McnGtX5kpsAqpa5MVXNviIP0zAOBgNVHQ8B
Af8EBAMCBeAwPgYDVR0lBDcwNQYIKwYBBQUHAwEGCCsGAQUFBwMCBgorBgEEAYI3
CgMDBglghkgBhvhCBAEGCCsGAQUFBwMEMB8GA1UdIwQYMBaAFJF3NnsutGnzJ+q3
9giLSiOiEUnGMCQGA1UdEQQdMBuCGWRvY2tlci1zdG9ybS5jbmFmLmluZm4uaXQw
DQYJKoZIhvcNAQENBQADggEBAHn28MmBCQxaGrd1ypy2LdM7vFBuclKelEis/6Ru
w2zTuDz9/uizsA+UYWDp+iojypQyUwagGkkaE4xlp6dTKMNvb/voTxui6lUsm6w2
0g+jBZX6+qRPqvZLt39lWQV8wMUsv1Ol9sCS16zaquObNFXCNaisDchs8gwAz1k9
mYunILwd+zJy51UeEnXlTlYEHZbFaopJ3JeyExWdiWZD+zF8MwCAvpcPeMq5phGN
6aRzZEypEwytvBp4Z9IALsqNkOoQO9+0nlcnd6YRSCCWei/xt7arM8ETTdjCOTx4
ufSUr1AzF8qD6YdY3PwZwCTWiGXGwQlbUkFqfkVgc56sPBM=
-----END CERTIFICATE-----
