Certificate:
    Data:
        Version: 3 (0x2)
        Serial Number: 98 (0x62)
        Signature Algorithm: sha512WithRSAEncryption
        Issuer: C=IT, O=IGI, CN=Test CA
        Validity
            Not Before: Sep  4 11:53:12 2014 GMT
            Not After : Sep  1 11:53:12 2024 GMT
        Subject: C=IT, O=IGI, CN=voms-server
        Subject Public Key Info:
            Public Key Algorithm: rsaEncryption
            RSA Public Key: (2048 bit)
                Modulus (2048 bit):
                    00:e7:a4:3d:1e:98:4a:9f:35:9c:65:58:05:42:1b:
                    37:dc:f3:48:ce:7a:22:07:58:78:c0:d5:7e:26:3d:
                    3d:23:ad:13:f8:9a:21:2f:82:60:fa:35:34:79:ef:
                    ba:07:ad:e5:58:0a:26:e0:ac:0d:95:bd:f8:90:83:
                    00:e8:bb:12:dc:39:55:32:1c:f7:6e:f0:f0:21:d6:
                    52:87:69:a4:43:f8:8f:b1:39:71:4d:0a:c8:b5:77:
                    a3:e8:9a:af:c7:e2:83:b4:40:7f:db:a2:06:30:59:
                    9b:9e:23:38:e5:62:5a:cb:2f:dd:2f:6b:9b:73:dc:
                    ea:91:fd:f6:45:f7:7e:0c:c3:1d:b0:fd:f3:18:0f:
                    52:c1:81:5e:1b:9a:04:e8:52:a9:f6:83:9b:68:4c:
                    60:c4:40:32:37:72:99:ed:77:f1:5f:22:ed:50:79:
                    03:8e:5e:ce:3e:98:67:49:2f:c3:da:84:95:e9:d1:
                    96:d6:45:e8:c6:c4:e5:0e:39:9e:99:b2:53:07:23:
                    d9:c5:ef:d5:ea:a8:a4:b7:1f:71:7b:9b:3d:33:50:
                    a5:54:ed:38:f8:e4:a8:93:77:93:92:ad:5a:1c:50:
                    fb:25:72:29:cd:8a:ef:cb:e2:8a:f6:f8:cb:8c:1b:
                    ba:ad:99:ec:fb:82:15:40:20:12:3b:b6:91:6f:51:
                    77:99
                Exponent: 65537 (0x10001)
        X509v3 extensions:
            X509v3 Basic Constraints: critical
                CA:FALSE
            X509v3 Subject Key Identifier: 
                B9:72:B2:C8:80:8B:0D:16:6D:FC:29:5C:CD:CB:4E:C6:94:9B:2A:7E
            X509v3 Key Usage: critical
                Digital Signature, Non Repudiation, Key Encipherment
            X509v3 Extended Key Usage: 
                TLS Web Server Authentication, TLS Web Client Authentication, Microsoft Server Gated Crypto, Netscape Server Gated Crypto, E-mail Protection
            X509v3 Authority Key Identifier: 
                keyid:91:77:36:7B:2E:B4:69:F3:27:EA:B7:F6:08:8B:4A:23:A2:11:49:C6

    Signature Algorithm: sha512WithRSAEncryption
        74:d6:a1:a6:89:4d:a4:fc:af:9f:27:2e:2d:c3:93:ad:23:4f:
        ba:ae:65:5a:2d:c3:c5:78:79:a6:d9:6d:3c:26:e1:c3:88:9d:
        96:b5:8a:76:59:43:9f:a1:0e:7e:14:31:5d:cd:eb:cb:14:58:
        3a:da:5f:a4:ba:03:d8:2e:9b:b6:86:0c:84:3f:97:4b:36:28:
        ce:1b:24:01:30:f2:32:f4:02:3d:73:0e:66:04:fd:ea:7c:18:
        a2:48:04:9a:26:eb:23:ad:28:e8:81:c1:84:0d:a4:a3:93:59:
        2b:2d:46:a0:76:57:a8:d8:e9:63:1f:e3:cc:4e:e4:37:d1:0c:
        ac:cf:47:d4:81:8e:3b:f9:7d:a9:20:67:20:ac:fd:b7:fc:02:
        4c:80:a9:3c:73:b1:cb:df:e9:e7:57:d5:f2:53:29:eb:2d:4a:
        08:42:ca:f8:89:59:e8:10:4a:bb:17:c6:74:fb:3d:39:0d:97:
        fb:dd:b1:d4:bf:c7:d7:a7:86:56:6a:c6:74:69:53:16:d6:60:
        4a:40:0f:e2:07:89:50:47:5d:71:c0:bb:c4:ed:9d:56:e5:4e:
        c7:65:10:f3:2f:b9:25:da:fc:e1:3c:c5:1f:cb:f2:fb:21:86:
        ee:3e:b4:f7:e3:6e:ce:be:43:cf:64:40:15:52:5f:7c:f0:5e:
        09:b1:c2:eb
-----BEGIN CERTIFICATE-----
MIIDezCCAmOgAwIBAgIBYjANBgkqhkiG9w0BAQ0FADAtMQswCQYDVQQGEwJJVDEM
MAoGA1UECgwDSUdJMRAwDgYDVQQDDAdUZXN0IENBMB4XDTE0MDkwNDExNTMxMloX
DTI0MDkwMTExNTMxMlowMTELMAkGA1UEBhMCSVQxDDAKBgNVBAoTA0lHSTEUMBIG
A1UEAxMLdm9tcy1zZXJ2ZXIwggEiMA0GCSqGSIb3DQEBAQUAA4IBDwAwggEKAoIB
AQDnpD0emEqfNZxlWAVCGzfc80jOeiIHWHjA1X4mPT0jrRP4miEvgmD6NTR577oH
reVYCibgrA2VvfiQgwDouxLcOVUyHPdu8PAh1lKHaaRD+I+xOXFNCsi1d6Pomq/H
4oO0QH/bogYwWZueIzjlYlrLL90va5tz3OqR/fZF934Mwx2w/fMYD1LBgV4bmgTo
Uqn2g5toTGDEQDI3cpntd/FfIu1QeQOOXs4+mGdJL8PahJXp0ZbWRejGxOUOOZ6Z
slMHI9nF79XqqKS3H3F7mz0zUKVU7Tj45KiTd5OSrVocUPslcinNiu/L4or2+MuM
G7qtmez7ghVAIBI7tpFvUXeZAgMBAAGjgaEwgZ4wDAYDVR0TAQH/BAIwADAdBgNV
HQ4EFgQUuXKyyICLDRZt/ClczctOxpSbKn4wDgYDVR0PAQH/BAQDAgXgMD4GA1Ud
JQQ3MDUGCCsGAQUFBwMBBggrBgEFBQcDAgYKKwYBBAGCNwoDAwYJYIZIAYb4QgQB
BggrBgEFBQcDBDAfBgNVHSMEGDAWgBSRdzZ7LrRp8yfqt/YIi0ojohFJxjANBgkq
hkiG9w0BAQ0FAAOCAQEAdNahpolNpPyvnycuLcOTrSNPuq5lWi3DxXh5ptltPCbh
w4idlrWKdllDn6EOfhQxXc3ryxRYOtpfpLoD2C6btoYMhD+XSzYozhskATDyMvQC
PXMOZgT96nwYokgEmibrI60o6IHBhA2ko5NZKy1GoHZXqNjpYx/jzE7kN9EMrM9H
1IGOO/l9qSBnIKz9t/wCTICpPHOxy9/p51fV8lMp6y1KCELK+IlZ6BBKuxfGdPs9
OQ2X+92x1L/H16eGVmrGdGlTFtZgSkAP4geJUEddccC7xO2dVuVOx2UQ8y+5Jdr8
4TzFH8vy+yGG7j609+Nuzr5Dz2RAFVJffPBeCbHC6w==
-----END CERTIFICATE-----
